; Function Attrs: mustprogress uwtable
define internal void @_ZZN3nix16runPostBuildHookERNS_5StoreERNS_6LoggerERKNS_9StorePathERKSt3setIS4_St4lessIS4_ESaIS4_EEEN7LogSinkclESt17basic_string_viewIcSt11char_traitsIcEE(ptr noundef nonnull align 8 dereferenceable(48) %0, i64 %1, ptr readonly %2) unnamed_addr #5 align 2 personality ptr @__gxx_personality_v0 {
  %4 = getelementptr inbounds i8, ptr %2, i64 %1
  %.not9 = icmp eq i64 %1, 0
  br i1 %.not9, label %._crit_edge, label %.lr.ph

.lr.ph:                                           ; preds = %3
  %5 = getelementptr inbounds i8, ptr %0, i64 16
  %6 = getelementptr inbounds i8, ptr %0, i64 24
  %7 = getelementptr inbounds i8, ptr %0, i64 32
  %8 = getelementptr inbounds i8, ptr %0, i64 8
  br label %9

9:                                                ; preds = %.lr.ph, %30
  %.010 = phi ptr [ %2, %.lr.ph ], [ %31, %30 ]
  %10 = load i8, ptr %.010, align 1
  %11 = icmp eq i8 %10, 10
  br i1 %11, label %12, label %15

12:                                               ; preds = %9
  %13 = load ptr, ptr %8, align 8
  tail call void @_ZNK3nix8Activity6resultIJNSt7__cxx1112basic_stringIcSt11char_traitsIcESaIcEEEEEEvNS_10ResultTypeEDpRKT_(ptr noundef nonnull align 8 dereferenceable(16) %13, i32 noundef 107, ptr noundef nonnull align 8 dereferenceable(32) %5)
  store i64 0, ptr %6, align 8
  %14 = load ptr, ptr %5, align 8
  br label %30

15:                                               ; preds = %9
  %16 = load i64, ptr %6, align 8
  %17 = add i64 %16, 1
  %18 = load ptr, ptr %5, align 8
  %19 = icmp eq ptr %18, %7
  br i1 %19, label %20, label %_ZNKSt7__cxx1112basic_stringIcSt11char_traitsIcESaIcEE8capacityEv.exit.i.i

20:                                               ; preds = %15
  %21 = icmp ult i64 %16, 16
  tail call void @llvm.assume(i1 %21)
  br label %_ZNKSt7__cxx1112basic_stringIcSt11char_traitsIcESaIcEE8capacityEv.exit.i.i

_ZNKSt7__cxx1112basic_stringIcSt11char_traitsIcESaIcEE8capacityEv.exit.i.i: ; preds = %20, %15
  %22 = load i64, ptr %7, align 8
  %23 = select i1 %19, i64 15, i64 %22
  %24 = icmp ugt i64 %17, %23
  br i1 %24, label %25, label %_ZNSt7__cxx1112basic_stringIcSt11char_traitsIcESaIcEEpLEc.exit

25:                                               ; preds = %_ZNKSt7__cxx1112basic_stringIcSt11char_traitsIcESaIcEE8capacityEv.exit.i.i
  tail call void @_ZNSt7__cxx1112basic_stringIcSt11char_traitsIcESaIcEE9_M_mutateEmmPKcm(ptr noundef nonnull align 8 dereferenceable(32) %5, i64 noundef %16, i64 noundef 0, ptr noundef null, i64 noundef 1)
  %.pre.i.i = load ptr, ptr %5, align 8
  br label %_ZNSt7__cxx1112basic_stringIcSt11char_traitsIcESaIcEEpLEc.exit

_ZNSt7__cxx1112basic_stringIcSt11char_traitsIcESaIcEEpLEc.exit: ; preds = %_ZNKSt7__cxx1112basic_stringIcSt11char_traitsIcESaIcEE8capacityEv.exit.i.i, %25
  %26 = phi ptr [ %.pre.i.i, %25 ], [ %18, %_ZNKSt7__cxx1112basic_stringIcSt11char_traitsIcESaIcEE8capacityEv.exit.i.i ]
  %27 = getelementptr inbounds i8, ptr %26, i64 %16
  store i8 %10, ptr %27, align 1
  store i64 %17, ptr %6, align 8
  %28 = load ptr, ptr %5, align 8
  %29 = getelementptr inbounds i8, ptr %28, i64 %17
  br label %30

30:                                               ; preds = %12, %_ZNSt7__cxx1112basic_stringIcSt11char_traitsIcESaIcEEpLEc.exit
  %.sink = phi ptr [ %14, %12 ], [ %29, %_ZNSt7__cxx1112basic_stringIcSt11char_traitsIcESaIcEEpLEc.exit ]
  store i8 0, ptr %.sink, align 1
  %31 = getelementptr inbounds i8, ptr %.010, i64 1
  %.not = icmp eq ptr %31, %4
  br i1 %.not, label %._crit_edge, label %9

._crit_edge:                                      ; preds = %30, %3
  ret void
}